; THIS IS AN AUTOGENERATED FILE
; DO NOT EDIT

EXPORTS
	; == BCore ==
	??1BCore@@UAE@XZ
	?vfunc4@BCore@@UAEPAXPAX@Z
	?vfunc8@BCore@@UAEHXZ
	?vfunc12@BCore@@UAEXXZ
	?vfunc16@BCore@@UAEPAXXZ
	?vfunc20@BCore@@UAEHXZ
	?vfunc24@BCore@@UAEHXZ
	?vfunc28@BCore@@UAEOXZ
	?vfunc32@BCore@@UAEHD@Z
	?vfunc36@BCore@@UAEXXZ
	?vfunc40@BCore@@UAEXXZ
	?ShowMessageBox@BCore@@UAEHABVBString@@HPB_W@Z
	?vfunc48@BCore@@UAEHPAVBString@@@Z
	?vfunc52@BCore@@UAEPAXH@Z
	?vfunc56@BCore@@UAEHXZ
	?vfunc60@BCore@@UAEHXZ
	?vfunc64@BCore@@UAEHXZ
	?vfunc68@BCore@@UAEPAXXZ
	?vfunc72@BCore@@UAEHE@Z
	?vfunc76@BCore@@UAE_NXZ
	?vfunc80@BCore@@UAEHXZ
	?vfunc84@BCore@@UAEHXZ
	?vfunc88@BCore@@UAEHXZ
	?createGadgetManager@BCore@@UAE_NXZ
	?vfunc96@BCore@@UAEPAXHHPAXH@Z
	?vfunc100@BCore@@UAEPAXHHPAX0H@Z
	?vfunc104@BCore@@UAEHHHHHPAX0H@Z
	?vfunc108@BCore@@UAEHHHDE@Z
	?vfunc112@BCore@@UAEDHD@Z
	?vfunc116@BCore@@UAE_NXZ
	?vfunc120@BCore@@UAEHXZ
	?vfunc124@BCore@@UAE_NXZ
	?vfunc128@BCore@@UAEXPBD@Z
	?vfunc132@BCore@@UAEHH@Z
	?vfunc136@BCore@@UAEHDD@Z
	?vfunc140@BCore@@UAEXPAVBString@@0@Z
	??2BCore@@SAPAXI@Z
	??_UBCore@@SAPAXI@Z
	??3BCore@@SAXPAX@Z
	??_VBCore@@SAXPAX@Z
	; == BGadget ==
	??1BGadget@@UAE@XZ
	?show@BGadget@@UAEXXZ
	?vfunc8@BGadget@@UAEXD@Z
	?vfunc12@BGadget@@UAEXXZ
	?vfunc16@BGadget@@UAEXXZ
	?vfunc20@BGadget@@UAEXXZ
	?vfunc24@BGadget@@UAE_NHH@Z
	?vfunc28@BGadget@@UAE_NXZ
	?vfunc32@BGadget@@UAEXXZ
	?vfunc36@BGadget@@UAE_NH@Z
	?vfunc40@BGadget@@UAEHHE@Z
	?vfunc44@BGadget@@UAEXPBH@Z
	?vfunc48@BGadget@@UAEXHH@Z
	?vfunc52@BGadget@@UAEXPBH@Z
	?vfunc56@BGadget@@UAEXPBHH@Z
	?vfunc60@BGadget@@UAEXPBH@Z
	?vfunc64@BGadget@@UAEXPAH@Z
	?vfunc68@BGadget@@UAEXH@Z
	?setHandle@BGadget@@UAEXH@Z
	?vfunc76@BGadget@@UAEXH@Z
	?removeChildHandle@BGadget@@UAEXH@Z
	?makeReal@BGadget@@UAEXXZ
	?makeUnreal@BGadget@@UAEXD@Z
	?vfunc92@BGadget@@UAE_NPAH@Z
	?vfunc96@BGadget@@UAE_NHHH@Z
	?setFlag@BGadget@@UAEXH@Z
	?resetFlag@BGadget@@UAEXH@Z
	?vfunc108@BGadget@@UAEXM@Z
	?vfunc112@BGadget@@UAEOXZ
	?vfunc116@BGadget@@UAEIXZ
	?vfunc120@BGadget@@UAEXXZ
	?vfunc124@BGadget@@UAEXXZ
	?vfunc128@BGadget@@UAEXPAH@Z
	?vfunc136@BGadget@@UAEHH@Z
	?setFont@BGadget@@UAEXPBHH@Z
	?vfunc144@BGadget@@UAEXXZ
	?vfunc148@BGadget@@UAEHE@Z
	?vfunc152@BGadget@@UAEHH@Z
	?vfunc156@BGadget@@UAEHXZ
	?vfunc160@BGadget@@UAEHH@Z
	?vfunc164@BGadget@@UAEHXZ
	?vfunc168@BGadget@@UAEXPAH@Z
	?vfunc172@BGadget@@UAEXPAH@Z
	?vfunc176@BGadget@@UAEXXZ
	?vfunc180@BGadget@@UAEXXZ
	?vfunc184@BGadget@@UAEXM@Z
	?vfunc188@BGadget@@UAEIHH@Z
	?vfunc192@BGadget@@UAE_NH@Z
	?vfunc196@BGadget@@UAEXXZ
	?vfunc200@BGadget@@UAEHDD@Z
	?isOfType@BGadget@@UAE_NH@Z
	?vfunc208@BGadget@@UAEPAV1@XZ
	?vfunc212@BGadget@@UAEHPAMEEH@Z
	?vfunc216@BGadget@@UAEPAV1@XZ
	?vfunc220@BGadget@@UAEHPAH000@Z
	?vfunc224@BGadget@@UAE_NH@Z
	?vfunc228@BGadget@@UAEXMD@Z
	?vfunc232@BGadget@@UAEXPAH@Z
	??2BGadget@@SAPAXI@Z
	??_UBGadget@@SAPAXI@Z
	??3BGadget@@SAXPAX@Z
	??_VBGadget@@SAXPAX@Z
	; == BString ==
	??0BString@@QAE@XZ
	??0BString@@QAE@ABV0@@Z
	??0BString@@QAE@PB_W@Z
	??1BString@@QAE@XZ
	??2BString@@SAPAXI@Z
	??_UBString@@SAPAXI@Z
	??3BString@@SAXPAX@Z
	??_VBString@@SAXPAX@Z
